target datalayout = "e-m:e-p270:32:32-p271:32:32-p272:64:64-i64:64-i128:128-f80:128-n8:16:32:64-S128"
target triple = "x86_64-pc-linux-gnu"

%struct.DWTContext = type { ptr, ptr, i32, i32, i32, i32, i32, ptr, %union.anon, %union.anon, ptr, ptr, ptr, ptr, [8 x %struct.DWTCompose] }
%union.anon = type { ptr }
%struct.DWTCompose = type { [8 x ptr], i32 }

; Function Attrs: alwaysinline nounwind willreturn memory(none) uwtable
define internal i32 @av_clip_c(i32 noundef %0, i32 noundef %1, i32 noundef %2) #3 {
  %4 = alloca i32, align 4
  %5 = alloca i32, align 4
  %6 = alloca i32, align 4
  %7 = alloca i32, align 4
  store i32 %0, ptr %5, align 4, !tbaa !11
  store i32 %1, ptr %6, align 4, !tbaa !11
  store i32 %2, ptr %7, align 4, !tbaa !11
  %8 = load i32, ptr %5, align 4, !tbaa !11
  %9 = load i32, ptr %6, align 4, !tbaa !11
  %10 = icmp slt i32 %8, %9
  br i1 %10, label %11, label %13

11:                                               ; preds = %3
  %12 = load i32, ptr %6, align 4, !tbaa !11
  store i32 %12, ptr %4, align 4
  br label %21

13:                                               ; preds = %3
  %14 = load i32, ptr %5, align 4, !tbaa !11
  %15 = load i32, ptr %7, align 4, !tbaa !11
  %16 = icmp sgt i32 %14, %15
  br i1 %16, label %17, label %19

17:                                               ; preds = %13
  %18 = load i32, ptr %7, align 4, !tbaa !11
  store i32 %18, ptr %4, align 4
  br label %21

19:                                               ; preds = %13
  %20 = load i32, ptr %5, align 4, !tbaa !11
  store i32 %20, ptr %4, align 4
  br label %21

21:                                               ; preds = %19, %17, %11
  %22 = load i32, ptr %4, align 4
  ret i32 %22
}

; Function Attrs: nounwind uwtable
define internal void @spatial_compose_dd137i_dy_10bit(ptr noundef %0, i32 noundef %1, i32 noundef %2, i32 noundef %3, i32 noundef %4) #0 {
  %6 = alloca ptr, align 8
  %7 = alloca i32, align 4
  %8 = alloca i32, align 4
  %9 = alloca i32, align 4
  %10 = alloca i32, align 4
  %11 = alloca ptr, align 8
  %12 = alloca ptr, align 8
  %13 = alloca ptr, align 8
  %14 = alloca i32, align 4
  %15 = alloca i32, align 4
  %16 = alloca [10 x ptr], align 16
  store ptr %0, ptr %6, align 8, !tbaa !4
  store i32 %1, ptr %7, align 4, !tbaa !11
  store i32 %2, ptr %8, align 4, !tbaa !11
  store i32 %3, ptr %9, align 4, !tbaa !11
  store i32 %4, ptr %10, align 4, !tbaa !11
  call void @llvm.lifetime.start.p0(i64 8, ptr %11) #5
  %17 = load ptr, ptr %6, align 8, !tbaa !4
  %18 = getelementptr inbounds nuw %struct.DWTContext, ptr %17, i32 0, i32 8
  %19 = load ptr, ptr %18, align 8, !tbaa !32
  store ptr %19, ptr %11, align 8, !tbaa !45
  call void @llvm.lifetime.start.p0(i64 8, ptr %12) #5
  %20 = load ptr, ptr %6, align 8, !tbaa !4
  %21 = getelementptr inbounds nuw %struct.DWTContext, ptr %20, i32 0, i32 9
  %22 = load ptr, ptr %21, align 8, !tbaa !32
  store ptr %22, ptr %12, align 8, !tbaa !45
  call void @llvm.lifetime.start.p0(i64 8, ptr %13) #5
  %23 = load ptr, ptr %6, align 8, !tbaa !4
  %24 = getelementptr inbounds nuw %struct.DWTContext, ptr %23, i32 0, i32 14
  %25 = getelementptr inbounds [8 x %struct.DWTCompose], ptr %24, i64 0, i64 0
  %26 = load i32, ptr %7, align 4, !tbaa !11
  %27 = sext i32 %26 to i64
  %28 = getelementptr inbounds %struct.DWTCompose, ptr %25, i64 %27
  store ptr %28, ptr %13, align 8, !tbaa !42
  call void @llvm.lifetime.start.p0(i64 4, ptr %14) #5
  call void @llvm.lifetime.start.p0(i64 4, ptr %15) #5
  %29 = load ptr, ptr %13, align 8, !tbaa !42
  %30 = getelementptr inbounds nuw %struct.DWTCompose, ptr %29, i32 0, i32 1
  %31 = load i32, ptr %30, align 8, !tbaa !27
  store i32 %31, ptr %15, align 4, !tbaa !11
  call void @llvm.lifetime.start.p0(i64 80, ptr %16) #5
  store i32 0, ptr %14, align 4, !tbaa !11
  br label %32

32:                                               ; preds = %45, %5
  %33 = load i32, ptr %14, align 4, !tbaa !11
  %34 = icmp slt i32 %33, 8
  br i1 %34, label %35, label %48

35:                                               ; preds = %32
  %36 = load ptr, ptr %13, align 8, !tbaa !42
  %37 = getelementptr inbounds nuw %struct.DWTCompose, ptr %36, i32 0, i32 0
  %38 = load i32, ptr %14, align 4, !tbaa !11
  %39 = sext i32 %38 to i64
  %40 = getelementptr inbounds [8 x ptr], ptr %37, i64 0, i64 %39
  %41 = load ptr, ptr %40, align 8, !tbaa !44
  %42 = load i32, ptr %14, align 4, !tbaa !11
  %43 = sext i32 %42 to i64
  %44 = getelementptr inbounds [10 x ptr], ptr %16, i64 0, i64 %43
  store ptr %41, ptr %44, align 8, !tbaa !44
  br label %45

45:                                               ; preds = %35
  %46 = load i32, ptr %14, align 4, !tbaa !11
  %47 = add nsw i32 %46, 1
  store i32 %47, ptr %14, align 4, !tbaa !11
  br label %32, !llvm.loop !99

48:                                               ; preds = %32
  %49 = load ptr, ptr %6, align 8, !tbaa !4
  %50 = getelementptr inbounds nuw %struct.DWTContext, ptr %49, i32 0, i32 0
  %51 = load ptr, ptr %50, align 8, !tbaa !16
  %52 = load i32, ptr %15, align 4, !tbaa !11
  %53 = add nsw i32 %52, 7
  %54 = load i32, ptr %9, align 4, !tbaa !11
  %55 = sub nsw i32 %54, 2
  %56 = call i32 @av_clip_c(i32 noundef %53, i32 noundef 0, i32 noundef %55) #6
  %57 = load i32, ptr %10, align 4, !tbaa !11
  %58 = mul nsw i32 %56, %57
  %59 = sext i32 %58 to i64
  %60 = getelementptr inbounds i8, ptr %51, i64 %59
  %61 = getelementptr inbounds [10 x ptr], ptr %16, i64 0, i64 8
  store ptr %60, ptr %61, align 16, !tbaa !44
  %62 = load ptr, ptr %6, align 8, !tbaa !4
  %63 = getelementptr inbounds nuw %struct.DWTContext, ptr %62, i32 0, i32 0
  %64 = load ptr, ptr %63, align 8, !tbaa !16
  %65 = load i32, ptr %15, align 4, !tbaa !11
  %66 = add nsw i32 %65, 8
  %67 = load i32, ptr %9, align 4, !tbaa !11
  %68 = sub nsw i32 %67, 1
  %69 = call i32 @av_clip_c(i32 noundef %66, i32 noundef 1, i32 noundef %68) #6
  %70 = load i32, ptr %10, align 4, !tbaa !11
  %71 = mul nsw i32 %69, %70
  %72 = sext i32 %71 to i64
  %73 = getelementptr inbounds i8, ptr %64, i64 %72
  %74 = getelementptr inbounds [10 x ptr], ptr %16, i64 0, i64 9
  store ptr %73, ptr %74, align 8, !tbaa !44
  %75 = load i32, ptr %15, align 4, !tbaa !11
  %76 = add nsw i32 %75, 5
  %77 = load i32, ptr %9, align 4, !tbaa !11
  %78 = icmp ult i32 %76, %77
  br i1 %78, label %79, label %92

79:                                               ; preds = %48
  %80 = load ptr, ptr %11, align 8, !tbaa !45
  %81 = getelementptr inbounds [10 x ptr], ptr %16, i64 0, i64 3
  %82 = load ptr, ptr %81, align 8, !tbaa !44
  %83 = getelementptr inbounds [10 x ptr], ptr %16, i64 0, i64 5
  %84 = load ptr, ptr %83, align 8, !tbaa !44
  %85 = getelementptr inbounds [10 x ptr], ptr %16, i64 0, i64 6
  %86 = load ptr, ptr %85, align 16, !tbaa !44
  %87 = getelementptr inbounds [10 x ptr], ptr %16, i64 0, i64 7
  %88 = load ptr, ptr %87, align 8, !tbaa !44
  %89 = getelementptr inbounds [10 x ptr], ptr %16, i64 0, i64 9
  %90 = load ptr, ptr %89, align 8, !tbaa !44
  %91 = load i32, ptr %8, align 4, !tbaa !11
  call void %80(ptr noundef %82, ptr noundef %84, ptr noundef %86, ptr noundef %88, ptr noundef %90, i32 noundef %91)
  br label %92

92:                                               ; preds = %79, %48
  %93 = load i32, ptr %15, align 4, !tbaa !11
  %94 = add nsw i32 %93, 1
  %95 = load i32, ptr %9, align 4, !tbaa !11
  %96 = icmp ult i32 %94, %95
  br i1 %96, label %97, label %110

97:                                               ; preds = %92
  %98 = load ptr, ptr %12, align 8, !tbaa !45
  %99 = getelementptr inbounds [10 x ptr], ptr %16, i64 0, i64 0
  %100 = load ptr, ptr %99, align 16, !tbaa !44
  %101 = getelementptr inbounds [10 x ptr], ptr %16, i64 0, i64 2
  %102 = load ptr, ptr %101, align 16, !tbaa !44
  %103 = getelementptr inbounds [10 x ptr], ptr %16, i64 0, i64 3
  %104 = load ptr, ptr %103, align 8, !tbaa !44
  %105 = getelementptr inbounds [10 x ptr], ptr %16, i64 0, i64 4
  %106 = load ptr, ptr %105, align 16, !tbaa !44
  %107 = getelementptr inbounds [10 x ptr], ptr %16, i64 0, i64 6
  %108 = load ptr, ptr %107, align 16, !tbaa !44
  %109 = load i32, ptr %8, align 4, !tbaa !11
  call void %98(ptr noundef %100, ptr noundef %102, ptr noundef %104, ptr noundef %106, ptr noundef %108, i32 noundef %109)
  br label %110

110:                                              ; preds = %97, %92
  %111 = load i32, ptr %15, align 4, !tbaa !11
  %112 = sub nsw i32 %111, 1
  %113 = load i32, ptr %9, align 4, !tbaa !11
  %114 = icmp ult i32 %112, %113
  br i1 %114, label %115, label %125

115:                                              ; preds = %110
  %116 = load ptr, ptr %6, align 8, !tbaa !4
  %117 = getelementptr inbounds nuw %struct.DWTContext, ptr %116, i32 0, i32 13
  %118 = load ptr, ptr %117, align 8, !tbaa !33
  %119 = getelementptr inbounds [10 x ptr], ptr %16, i64 0, i64 0
  %120 = load ptr, ptr %119, align 16, !tbaa !44
  %121 = load ptr, ptr %6, align 8, !tbaa !4
  %122 = getelementptr inbounds nuw %struct.DWTContext, ptr %121, i32 0, i32 1
  %123 = load ptr, ptr %122, align 8, !tbaa !25
  %124 = load i32, ptr %8, align 4, !tbaa !11
  call void %118(ptr noundef %120, ptr noundef %123, i32 noundef %124)
  br label %125

125:                                              ; preds = %115, %110
  %126 = load i32, ptr %15, align 4, !tbaa !11
  %127 = add nsw i32 %126, 0
  %128 = load i32, ptr %9, align 4, !tbaa !11
  %129 = icmp ult i32 %127, %128
  br i1 %129, label %130, label %140

130:                                              ; preds = %125
  %131 = load ptr, ptr %6, align 8, !tbaa !4
  %132 = getelementptr inbounds nuw %struct.DWTContext, ptr %131, i32 0, i32 13
  %133 = load ptr, ptr %132, align 8, !tbaa !33
  %134 = getelementptr inbounds [10 x ptr], ptr %16, i64 0, i64 1
  %135 = load ptr, ptr %134, align 8, !tbaa !44
  %136 = load ptr, ptr %6, align 8, !tbaa !4
  %137 = getelementptr inbounds nuw %struct.DWTContext, ptr %136, i32 0, i32 1
  %138 = load ptr, ptr %137, align 8, !tbaa !25
  %139 = load i32, ptr %8, align 4, !tbaa !11
  call void %133(ptr noundef %135, ptr noundef %138, i32 noundef %139)
  br label %140

140:                                              ; preds = %130, %125
  store i32 0, ptr %14, align 4, !tbaa !11
  br label %141

141:                                              ; preds = %155, %140
  %142 = load i32, ptr %14, align 4, !tbaa !11
  %143 = icmp slt i32 %142, 8
  br i1 %143, label %144, label %158

144:                                              ; preds = %141
  %145 = load i32, ptr %14, align 4, !tbaa !11
  %146 = add nsw i32 %145, 2
  %147 = sext i32 %146 to i64
  %148 = getelementptr inbounds [10 x ptr], ptr %16, i64 0, i64 %147
  %149 = load ptr, ptr %148, align 8, !tbaa !44
  %150 = load ptr, ptr %13, align 8, !tbaa !42
  %151 = getelementptr inbounds nuw %struct.DWTCompose, ptr %150, i32 0, i32 0
  %152 = load i32, ptr %14, align 4, !tbaa !11
  %153 = sext i32 %152 to i64
  %154 = getelementptr inbounds [8 x ptr], ptr %151, i64 0, i64 %153
  store ptr %149, ptr %154, align 8, !tbaa !44
  br label %155

155:                                              ; preds = %144
  %156 = load i32, ptr %14, align 4, !tbaa !11
  %157 = add nsw i32 %156, 1
  store i32 %157, ptr %14, align 4, !tbaa !11
  br label %141, !llvm.loop !100

158:                                              ; preds = %141
  %159 = load ptr, ptr %13, align 8, !tbaa !42
  %160 = getelementptr inbounds nuw %struct.DWTCompose, ptr %159, i32 0, i32 1
  %161 = load i32, ptr %160, align 8, !tbaa !27
  %162 = add nsw i32 %161, 2
  store i32 %162, ptr %160, align 8, !tbaa !27
  call void @llvm.lifetime.end.p0(i64 80, ptr %16) #5
  call void @llvm.lifetime.end.p0(i64 4, ptr %15) #5
  call void @llvm.lifetime.end.p0(i64 4, ptr %14) #5
  call void @llvm.lifetime.end.p0(i64 8, ptr %13) #5
  call void @llvm.lifetime.end.p0(i64 8, ptr %12) #5
  call void @llvm.lifetime.end.p0(i64 8, ptr %11) #5
  ret void
}